; Function Attrs: nounwind sspstrong uwtable
define internal fastcc void @expand_2s_vec(i32 noundef range(i32 0, 256) %0, i32 noundef %1, i32 noundef %2, i32 noundef %3, i32 noundef range(i32 8, 33) %4, i32 noundef range(i32 3, 6) %5, ptr noundef %6, i1 noundef zeroext %7, ptr noundef readonly captures(none) %8) unnamed_addr #2 {
  %.not = icmp eq i32 %3, 0
  br i1 %.not, label %._crit_edge, label %.lr.ph

.lr.ph:                                           ; preds = %9
  br i1 %7, label %.lr.ph.split.us, label %.lr.ph.split

.lr.ph.split.us:                                  ; preds = %.lr.ph, %.lr.ph.split.us
  %.022.us = phi i32 [ %18, %.lr.ph.split.us ], [ 0, %.lr.ph ]
  %10 = tail call ptr @tcg_temp_new_vec(i32 noundef %5) #10
  %11 = tail call ptr @tcg_temp_new_vec(i32 noundef %5) #10
  %12 = load ptr, ptr @tcg_env, align 8
  %13 = add i32 %.022.us, %2
  %14 = zext i32 %13 to i64
  tail call void @tcg_gen_ld_vec(ptr noundef %10, ptr noundef %12, i64 noundef %14) #10
  tail call void %8(i32 noundef %0, ptr noundef %11, ptr noundef %6, ptr noundef %10) #10
  %15 = load ptr, ptr @tcg_env, align 8
  %16 = add i32 %.022.us, %1
  %17 = zext i32 %16 to i64
  tail call void @tcg_gen_st_vec(ptr noundef %11, ptr noundef %15, i64 noundef %17) #10
  %18 = add i32 %.022.us, %4
  %19 = icmp ult i32 %18, %3
  br i1 %19, label %.lr.ph.split.us, label %._crit_edge, !llvm.loop !13

._crit_edge:                                      ; preds = %.lr.ph.split, %.lr.ph.split.us, %9
  ret void

.lr.ph.split:                                     ; preds = %.lr.ph, %.lr.ph.split
  %.022 = phi i32 [ %28, %.lr.ph.split ], [ 0, %.lr.ph ]
  %20 = tail call ptr @tcg_temp_new_vec(i32 noundef %5) #10
  %21 = tail call ptr @tcg_temp_new_vec(i32 noundef %5) #10
  %22 = load ptr, ptr @tcg_env, align 8
  %23 = add i32 %.022, %2
  %24 = zext i32 %23 to i64
  tail call void @tcg_gen_ld_vec(ptr noundef %20, ptr noundef %22, i64 noundef %24) #10
  tail call void %8(i32 noundef %0, ptr noundef %21, ptr noundef %20, ptr noundef %6) #10
  %25 = load ptr, ptr @tcg_env, align 8
  %26 = add i32 %.022, %1
  %27 = zext i32 %26 to i64
  tail call void @tcg_gen_st_vec(ptr noundef %21, ptr noundef %25, i64 noundef %27) #10
  %28 = add i32 %.022, %4
  %29 = icmp ult i32 %28, %3
  br i1 %29, label %.lr.ph.split, label %._crit_edge, !llvm.loop !13
}